; Function Attrs: mustprogress uwtable
define internal void @_ZN11opencv_test12_GLOBAL__N_136OCL_RetinaFixture_Retina_Retina_Test4BodyEv(ptr noundef nonnull align 8 dereferenceable(257) %0) unnamed_addr #4 align 2 personality ptr @__gxx_personality_v0 {
  %2 = alloca %"class.cv::utils::trace::details::Region", align 8
  call void @llvm.lifetime.start.p0(i64 16, ptr nonnull %2) #28
  call void @_ZN2cv5utils5trace7details6RegionC1ERKNS3_21LocationStaticStorageE(ptr noundef nonnull align 8 dereferenceable(12) %2, ptr noundef nonnull align 8 dereferenceable(32) @_ZZN11opencv_test12_GLOBAL__N_136OCL_RetinaFixture_Retina_Retina_Test4BodyEvE28__cv_trace_location_region16)
  %3 = getelementptr inbounds nuw i8, ptr %0, i64 240
  %4 = invoke noundef nonnull align 8 dereferenceable(8) ptr @_ZN4perf8TestBase14_declareHelper8strategyENS_13PERF_STRATEGYE(ptr noundef nonnull align 8 dereferenceable(8) %3, i32 noundef 1)
          to label %5 unwind label %13

5:                                                ; preds = %1
  invoke void @_ZN4perf8TestBase15RunPerfTestBodyEv(ptr noundef nonnull align 8 dereferenceable(248) %0)
          to label %6 unwind label %13

6:                                                ; preds = %5
  %7 = getelementptr inbounds nuw i8, ptr %2, i64 8
  %8 = load i32, ptr %7, align 8, !tbaa !106
  %.not.i = icmp eq i32 %8, 0
  br i1 %.not.i, label %_ZN2cv5utils5trace7details6RegionD2Ev.exit, label %9

9:                                                ; preds = %6
  invoke void @_ZN2cv5utils5trace7details6Region7destroyEv(ptr noundef nonnull align 8 dereferenceable(12) %2)
          to label %_ZN2cv5utils5trace7details6RegionD2Ev.exit unwind label %10

10:                                               ; preds = %9
  %11 = landingpad { ptr, i32 }
          catch ptr null
  %12 = extractvalue { ptr, i32 } %11, 0
  call void @__clang_call_terminate(ptr %12) #30
  unreachable

_ZN2cv5utils5trace7details6RegionD2Ev.exit:       ; preds = %6, %9
  call void @llvm.lifetime.end.p0(i64 16, ptr nonnull %2) #28
  ret void

13:                                               ; preds = %5, %1
  %14 = landingpad { ptr, i32 }
          cleanup
  call void @_ZN2cv5utils5trace7details6RegionD2Ev(ptr noundef nonnull align 8 dereferenceable(12) %2) #28
  call void @llvm.lifetime.end.p0(i64 16, ptr nonnull %2) #28
  resume { ptr, i32 } %14
}